; Function Attrs: mustprogress nofree norecurse nosync nounwind willreturn memory(argmem: readwrite) uwtable
define internal noundef zeroext i1 @_ZNSt17_Function_handlerIFvRN14ArgumentParser8InstanceEEZN16cmArgumentParserIZN12_GLOBAL__N_129HandleReplaceExtensionCommandERKSt6vectorINSt7__cxx1112basic_stringIcSt11char_traitsIcESaIcEEESaISC_EER17cmExecutionStatusE9ArgumentsE4BindISt8optionalINS0_8NonEmptyISC_EEEEERSK_N2cm18static_string_viewEMSJ_T_EUlS2_E_E10_M_managerERSt9_Any_dataRKSX_St18_Manager_operation(ptr noundef nonnull writeonly align 8 captures(none) dereferenceable(16) %0, ptr noundef nonnull align 8 dereferenceable(16) %1, i32 noundef %2) #15 align 2 personality ptr @__gxx_personality_v0 {
  switch i32 %2, label %_ZNSt14_Function_base13_Base_managerIZN16cmArgumentParserIZN12_GLOBAL__N_129HandleReplaceExtensionCommandERKSt6vectorINSt7__cxx1112basic_stringIcSt11char_traitsIcESaIcEEESaIS9_EER17cmExecutionStatusE9ArgumentsE4BindISt8optionalIN14ArgumentParser8NonEmptyIS9_EEEEERSH_N2cm18static_string_viewEMSG_T_EUlRNSK_8InstanceEE_E10_M_managerERSt9_Any_dataRKSX_St18_Manager_operation.exit [
    i32 0, label %4
    i32 1, label %5
    i32 2, label %6
  ]

4:                                                ; preds = %3
  store ptr @_ZTIZN16cmArgumentParserIZN12_GLOBAL__N_129HandleReplaceExtensionCommandERKSt6vectorINSt7__cxx1112basic_stringIcSt11char_traitsIcESaIcEEESaIS7_EER17cmExecutionStatusE9ArgumentsE4BindISt8optionalIN14ArgumentParser8NonEmptyIS7_EEEEERSF_N2cm18static_string_viewEMSE_T_EUlRNSI_8InstanceEE_, ptr %0, align 8
  br label %_ZNSt14_Function_base13_Base_managerIZN16cmArgumentParserIZN12_GLOBAL__N_129HandleReplaceExtensionCommandERKSt6vectorINSt7__cxx1112basic_stringIcSt11char_traitsIcESaIcEEESaIS9_EER17cmExecutionStatusE9ArgumentsE4BindISt8optionalIN14ArgumentParser8NonEmptyIS9_EEEEERSH_N2cm18static_string_viewEMSG_T_EUlRNSK_8InstanceEE_E10_M_managerERSt9_Any_dataRKSX_St18_Manager_operation.exit

5:                                                ; preds = %3
  store ptr %1, ptr %0, align 8
  br label %_ZNSt14_Function_base13_Base_managerIZN16cmArgumentParserIZN12_GLOBAL__N_129HandleReplaceExtensionCommandERKSt6vectorINSt7__cxx1112basic_stringIcSt11char_traitsIcESaIcEEESaIS9_EER17cmExecutionStatusE9ArgumentsE4BindISt8optionalIN14ArgumentParser8NonEmptyIS9_EEEEERSH_N2cm18static_string_viewEMSG_T_EUlRNSK_8InstanceEE_E10_M_managerERSt9_Any_dataRKSX_St18_Manager_operation.exit

6:                                                ; preds = %3
  %.val.i = load i64, ptr %1, align 8
  store i64 %.val.i, ptr %0, align 8
  br label %_ZNSt14_Function_base13_Base_managerIZN16cmArgumentParserIZN12_GLOBAL__N_129HandleReplaceExtensionCommandERKSt6vectorINSt7__cxx1112basic_stringIcSt11char_traitsIcESaIcEEESaIS9_EER17cmExecutionStatusE9ArgumentsE4BindISt8optionalIN14ArgumentParser8NonEmptyIS9_EEEEERSH_N2cm18static_string_viewEMSG_T_EUlRNSK_8InstanceEE_E10_M_managerERSt9_Any_dataRKSX_St18_Manager_operation.exit

_ZNSt14_Function_base13_Base_managerIZN16cmArgumentParserIZN12_GLOBAL__N_129HandleReplaceExtensionCommandERKSt6vectorINSt7__cxx1112basic_stringIcSt11char_traitsIcESaIcEEESaIS9_EER17cmExecutionStatusE9ArgumentsE4BindISt8optionalIN14ArgumentParser8NonEmptyIS9_EEEEERSH_N2cm18static_string_viewEMSG_T_EUlRNSK_8InstanceEE_E10_M_managerERSt9_Any_dataRKSX_St18_Manager_operation.exit: ; preds = %3, %6, %5, %4
  ret i1 false
}